target datalayout = "e-m:e-p270:32:32-p271:32:32-p272:64:64-i64:64-i128:128-f80:128-n8:16:32:64-S128"
target triple = "x86_64-pc-linux-gnu"

%struct.slurm_preempt_ops = type { ptr, ptr, ptr }
%struct.job_record = type { i32, ptr, ptr, ptr, ptr, i16, i32, i32, i32, ptr, i32, ptr, ptr, i16, ptr, double, i64, ptr, ptr, ptr, ptr, ptr, ptr, i32, ptr, i32, i64, i64, i32, i32, ptr, i16, i64, i64, i8, i32, ptr, ptr, ptr, ptr, ptr, ptr, ptr, ptr, i32, ptr, ptr, i32, ptr, i32, ptr, i32, ptr, i32, ptr, ptr, ptr, ptr, ptr, ptr, i32, i16, i64, ptr, ptr, ptr, ptr, %struct.acct_policy_limit_set_t, i16, ptr, ptr, ptr, ptr, ptr, i32, ptr, ptr, ptr, ptr, ptr, i32, i32, ptr, ptr, ptr, i16, ptr, ptr, i8, ptr, ptr, i64, i64, i8, i32, i32, i8, i32, ptr, i32, i64, i32, ptr, ptr, ptr, i8, i16, i64, i32, ptr, ptr, ptr, ptr, ptr, i16, i32, ptr, ptr, ptr, ptr, i32, ptr, i32, i16, i64, ptr, i32, i32, ptr, i64, ptr, ptr, i64, i32, i32, i64, i32, i32, ptr, ptr, ptr, ptr, ptr, ptr, ptr, ptr, ptr, ptr, ptr, ptr, i32, ptr, i16, i16, i16, i16, ptr, i32, i32, i8, i64 }
%struct.acct_policy_limit_set_t = type { i16, i16, ptr }

@plugin_inited = internal global i32 0, align 4
@ops = internal global %struct.slurm_preempt_ops zeroinitializer, align 8
@slurm_job_preempt_mode.preempt_modes = internal constant [2 x i16] [i16 1, i16 2], align 2

; Function Attrs: nounwind uwtable
define internal zeroext i16 @_job_preempt_mode_internal(ptr noundef %0) #0 {
  %2 = alloca ptr, align 8
  %3 = alloca i16, align 2
  store ptr %0, ptr %2, align 8
  call void @llvm.lifetime.start.p0(i64 2, ptr %3) #6
  store i16 0, ptr %3, align 2
  %4 = load ptr, ptr getelementptr inbounds nuw (%struct.slurm_preempt_ops, ptr @ops, i32 0, i32 2), align 8
  %5 = load ptr, ptr %2, align 8
  %6 = call i32 %4(ptr noundef %5, i32 noundef 1, ptr noundef %3)
  %7 = load ptr, ptr %2, align 8
  %8 = getelementptr inbounds nuw %struct.job_record, ptr %7, i32 0, i32 153
  %9 = load i16, ptr %8, align 2
  %10 = zext i16 %9 to i64
  %11 = and i64 %10, 256
  %12 = icmp ne i64 %11, 0
  br i1 %12, label %13, label %18

13:                                               ; preds = %1
  %14 = load i16, ptr %3, align 2
  %15 = zext i16 %14 to i32
  %16 = icmp ne i32 %15, 2
  br i1 %16, label %17, label %18

17:                                               ; preds = %13
  store i16 8, ptr %3, align 2
  br label %18

18:                                               ; preds = %17, %13, %1
  %19 = load i16, ptr %3, align 2
  call void @llvm.lifetime.end.p0(i64 2, ptr %3) #6
  ret i16 %19
}

; Function Attrs: nounwind uwtable
define dso_local zeroext i16 @slurm_job_preempt_mode(ptr noundef %0) #0 {
  %2 = alloca i16, align 2
  %3 = alloca ptr, align 8
  %4 = alloca i16, align 2
  %5 = alloca i32, align 4
  %6 = alloca i32, align 4
  store ptr %0, ptr %3, align 8
  call void @llvm.lifetime.start.p0(i64 2, ptr %4) #6
  %7 = load i32, ptr @plugin_inited, align 4
  %8 = icmp eq i32 %7, 1
  br i1 %8, label %9, label %10

9:                                                ; preds = %1
  store i16 0, ptr %2, align 2
  store i32 1, ptr %5, align 4
  br label %68

10:                                               ; preds = %1
  %11 = load ptr, ptr %3, align 8
  %12 = getelementptr inbounds nuw %struct.job_record, ptr %11, i32 0, i32 52
  %13 = load ptr, ptr %12, align 8
  %14 = icmp ne ptr %13, null
  br i1 %14, label %15, label %52

15:                                               ; preds = %10
  %16 = load ptr, ptr %3, align 8
  %17 = getelementptr inbounds nuw %struct.job_record, ptr %16, i32 0, i32 58
  %18 = load ptr, ptr %17, align 8
  %19 = icmp ne ptr %18, null
  br i1 %19, label %52, label %20

20:                                               ; preds = %15
  call void @llvm.lifetime.start.p0(i64 4, ptr %6) #6
  store i32 0, ptr %6, align 4
  br label %21

21:                                               ; preds = %39, %20
  %22 = load i32, ptr %6, align 4
  %23 = icmp slt i32 %22, 2
  br i1 %23, label %25, label %24

24:                                               ; preds = %21
  store i32 2, ptr %5, align 4
  br label %42

25:                                               ; preds = %21
  %26 = load i32, ptr %6, align 4
  %27 = sext i32 %26 to i64
  %28 = getelementptr inbounds [2 x i16], ptr @slurm_job_preempt_mode.preempt_modes, i64 0, i64 %27
  %29 = load i16, ptr %28, align 2
  store i16 %29, ptr %4, align 2
  %30 = load ptr, ptr %3, align 8
  %31 = getelementptr inbounds nuw %struct.job_record, ptr %30, i32 0, i32 52
  %32 = load ptr, ptr %31, align 8
  %33 = call ptr @list_find_first(ptr noundef %32, ptr noundef @_find_job_by_preempt_mode, ptr noundef %4)
  %34 = load ptr, ptr %3, align 8
  %35 = getelementptr inbounds nuw %struct.job_record, ptr %34, i32 0, i32 58
  store ptr %33, ptr %35, align 8
  %36 = icmp ne ptr %33, null
  br i1 %36, label %37, label %38

37:                                               ; preds = %25
  store i32 2, ptr %5, align 4
  br label %42

38:                                               ; preds = %25
  br label %39

39:                                               ; preds = %38
  %40 = load i32, ptr %6, align 4
  %41 = add nsw i32 %40, 1
  store i32 %41, ptr %6, align 4
  br label %21, !llvm.loop !10

42:                                               ; preds = %37, %24
  call void @llvm.lifetime.end.p0(i64 4, ptr %6) #6
  br label %43

43:                                               ; preds = %42
  %44 = load ptr, ptr %3, align 8
  %45 = getelementptr inbounds nuw %struct.job_record, ptr %44, i32 0, i32 58
  %46 = load ptr, ptr %45, align 8
  %47 = icmp ne ptr %46, null
  br i1 %47, label %51, label %48

48:                                               ; preds = %43
  %49 = load ptr, ptr %3, align 8
  %50 = call zeroext i16 @_job_preempt_mode_internal(ptr noundef %49)
  store i16 %50, ptr %4, align 2
  br label %51

51:                                               ; preds = %48, %43
  br label %66

52:                                               ; preds = %15, %10
  %53 = load ptr, ptr %3, align 8
  %54 = getelementptr inbounds nuw %struct.job_record, ptr %53, i32 0, i32 58
  %55 = load ptr, ptr %54, align 8
  %56 = icmp ne ptr %55, null
  br i1 %56, label %57, label %61

57:                                               ; preds = %52
  %58 = load ptr, ptr %3, align 8
  %59 = getelementptr inbounds nuw %struct.job_record, ptr %58, i32 0, i32 58
  %60 = load ptr, ptr %59, align 8
  br label %63

61:                                               ; preds = %52
  %62 = load ptr, ptr %3, align 8
  br label %63

63:                                               ; preds = %61, %57
  %64 = phi ptr [ %60, %57 ], [ %62, %61 ]
  %65 = call zeroext i16 @_job_preempt_mode_internal(ptr noundef %64)
  store i16 %65, ptr %4, align 2
  br label %66

66:                                               ; preds = %63, %51
  %67 = load i16, ptr %4, align 2
  store i16 %67, ptr %2, align 2
  store i32 1, ptr %5, align 4
  br label %68

68:                                               ; preds = %66, %9
  call void @llvm.lifetime.end.p0(i64 2, ptr %4) #6
  %69 = load i16, ptr %2, align 2
  ret i16 %69
}