; Function Attrs: nounwind uwtable
define dso_local zeroext i16 @slurm_job_preempt_mode(ptr noundef %0) local_unnamed_addr #0 {
  %2 = alloca i16, align 2
  %3 = alloca i16, align 2
  %4 = alloca i16, align 2
  call void @llvm.lifetime.start.p0(i64 2, ptr nonnull %4) #8
  %5 = load i32, ptr @plugin_inited, align 4
  %6 = icmp eq i32 %5, 1
  br i1 %6, label %34, label %7

7:                                                ; preds = %1
  %8 = getelementptr inbounds nuw i8, ptr %0, i64 384
  %9 = load ptr, ptr %8, align 8
  %.not = icmp ne ptr %9, null
  %.phi.trans.insert = getelementptr inbounds nuw i8, ptr %0, i64 432
  %.pre = load ptr, ptr %.phi.trans.insert, align 8
  %.not14 = icmp eq ptr %.pre, null
  %or.cond = select i1 %.not, i1 %.not14, i1 false
  br i1 %or.cond, label %.preheader, label %._crit_edge

10:                                               ; preds = %.preheader
  br i1 %11, label %.preheader, label %16, !llvm.loop !10

.preheader:                                       ; preds = %7, %10
  %11 = phi i1 [ false, %10 ], [ true, %7 ]
  %indvars.iv = phi i64 [ 1, %10 ], [ 0, %7 ]
  %12 = getelementptr inbounds nuw [2 x i16], ptr @slurm_job_preempt_mode.preempt_modes, i64 0, i64 %indvars.iv
  %13 = load i16, ptr %12, align 2
  store i16 %13, ptr %4, align 2
  %14 = load ptr, ptr %8, align 8
  %15 = call ptr @list_find_first(ptr noundef %14, ptr noundef nonnull @_find_job_by_preempt_mode, ptr noundef nonnull %4) #8
  store ptr %15, ptr %.phi.trans.insert, align 8
  %.not15 = icmp eq ptr %15, null
  br i1 %.not15, label %10, label %.thread

16:                                               ; preds = %10
  call void @llvm.lifetime.start.p0(i64 2, ptr nonnull %3) #8
  store i16 0, ptr %3, align 2
  %17 = load ptr, ptr getelementptr inbounds nuw (i8, ptr @ops, i64 16), align 8
  %18 = call i32 %17(ptr noundef nonnull %0, i32 noundef 1, ptr noundef nonnull %3) #8
  %19 = getelementptr inbounds nuw i8, ptr %0, i64 1114
  %20 = load i16, ptr %19, align 2
  %21 = and i16 %20, 256
  %22 = icmp ne i16 %21, 0
  %23 = load i16, ptr %3, align 2
  %24 = icmp ne i16 %23, 2
  %or.cond.i = select i1 %22, i1 %24, i1 false
  %spec.select.i = select i1 %or.cond.i, i16 8, i16 %23
  call void @llvm.lifetime.end.p0(i64 2, ptr nonnull %3) #8
  br label %.thread.sink.split

._crit_edge:                                      ; preds = %7
  %.not17 = icmp eq ptr %.pre, null
  %. = select i1 %.not17, ptr %0, ptr %.pre
  call void @llvm.lifetime.start.p0(i64 2, ptr nonnull %2) #8
  store i16 0, ptr %2, align 2
  %25 = load ptr, ptr getelementptr inbounds nuw (i8, ptr @ops, i64 16), align 8
  %26 = call i32 %25(ptr noundef %., i32 noundef 1, ptr noundef nonnull %2) #8
  %27 = getelementptr inbounds nuw i8, ptr %., i64 1114
  %28 = load i16, ptr %27, align 2
  %29 = and i16 %28, 256
  %30 = icmp ne i16 %29, 0
  %31 = load i16, ptr %2, align 2
  %32 = icmp ne i16 %31, 2
  %or.cond.i18 = select i1 %30, i1 %32, i1 false
  %spec.select.i19 = select i1 %or.cond.i18, i16 8, i16 %31
  call void @llvm.lifetime.end.p0(i64 2, ptr nonnull %2) #8
  br label %.thread.sink.split

.thread.sink.split:                               ; preds = %._crit_edge, %16
  %spec.select.i.sink = phi i16 [ %spec.select.i, %16 ], [ %spec.select.i19, %._crit_edge ]
  store i16 %spec.select.i.sink, ptr %4, align 2
  br label %.thread

.thread:                                          ; preds = %.preheader, %.thread.sink.split
  %33 = load i16, ptr %4, align 2
  br label %34

34:                                               ; preds = %1, %.thread
  %.012 = phi i16 [ %33, %.thread ], [ 0, %1 ]
  call void @llvm.lifetime.end.p0(i64 2, ptr nonnull %4) #8
  ret i16 %.012
}